target datalayout = "e-m:e-p270:32:32-p271:32:32-p272:64:64-i64:64-i128:128-f80:128-n8:16:32:64-S128"
target triple = "x86_64-pc-linux-gnu"

%"class.LightGBM::MultiValBinWrapper" = type { i8, i8, i8, %"class.std::unique_ptr", %"class.std::unique_ptr", %"class.std::vector", %"class.std::vector", %"class.std::vector", %"class.std::vector.2", i32, i32, i32, i32, i32, i32, i32, i32, ptr, i64, i64, i64, i64 }
%"class.std::unique_ptr" = type { %"struct.std::__uniq_ptr_data" }
%"struct.std::__uniq_ptr_data" = type { %"class.std::__uniq_ptr_impl" }
%"class.std::__uniq_ptr_impl" = type { %"class.std::tuple" }
%"class.std::tuple" = type { %"struct.std::_Tuple_impl" }
%"struct.std::_Tuple_impl" = type { %"struct.std::_Head_base.1" }
%"struct.std::_Head_base.1" = type { ptr }
%"class.std::vector" = type { %"struct.std::_Vector_base" }
%"struct.std::_Vector_base" = type { %"struct.std::_Vector_base<unsigned int, std::allocator<unsigned int>>::_Vector_impl" }
%"struct.std::_Vector_base<unsigned int, std::allocator<unsigned int>>::_Vector_impl" = type { %"struct.std::_Vector_base<unsigned int, std::allocator<unsigned int>>::_Vector_impl_data" }
%"struct.std::_Vector_base<unsigned int, std::allocator<unsigned int>>::_Vector_impl_data" = type { ptr, ptr, ptr }
%"class.std::vector.2" = type { %"struct.std::_Vector_base.3" }
%"struct.std::_Vector_base.3" = type { %"struct.std::_Vector_base<int, std::allocator<int>>::_Vector_impl" }
%"struct.std::_Vector_base<int, std::allocator<int>>::_Vector_impl" = type { %"struct.std::_Vector_base<int, std::allocator<int>>::_Vector_impl_data" }
%"struct.std::_Vector_base<int, std::allocator<int>>::_Vector_impl_data" = type { ptr, ptr, ptr }
%"struct.std::_Vector_base.8" = type { %"struct.std::_Vector_base<double, LightGBM::Common::AlignmentAllocator<double>>::_Vector_impl" }
%"struct.std::_Vector_base<double, LightGBM::Common::AlignmentAllocator<double>>::_Vector_impl" = type { %"struct.std::_Vector_base<double, LightGBM::Common::AlignmentAllocator<double>>::_Vector_impl_data" }
%"struct.std::_Vector_base<double, LightGBM::Common::AlignmentAllocator<double>>::_Vector_impl_data" = type { ptr, ptr, ptr }

; Function Attrs: inlinehint mustprogress nounwind uwtable
define linkonce_odr void @_ZN8LightGBM6Common18AlignmentAllocatorIdLm32EE7destroyEPd(ptr noundef nonnull align 1 dereferenceable(1) %0, ptr noundef %1) #9 comdat align 2 {
  %3 = alloca ptr, align 8
  %4 = alloca ptr, align 8
  store ptr %0, ptr %3, align 8, !tbaa !205
  store ptr %1, ptr %4, align 8, !tbaa !36
  ret void
}

; Function Attrs: mustprogress uwtable
define linkonce_odr void @_ZNSt16allocator_traitsIN8LightGBM6Common18AlignmentAllocatorIdLm32EEEE10_S_destroyIS3_dEEDTcldtfp_7destroyfp0_EERT_PT0_i(ptr noundef nonnull align 1 dereferenceable(1) %0, ptr noundef %1, i32 noundef %2) #11 comdat align 2 {
  %4 = alloca ptr, align 8
  %5 = alloca ptr, align 8
  %6 = alloca i32, align 4
  store ptr %0, ptr %4, align 8, !tbaa !205
  store ptr %1, ptr %5, align 8, !tbaa !36
  store i32 %2, ptr %6, align 4, !tbaa !45
  %7 = load ptr, ptr %4, align 8, !tbaa !205
  %8 = load ptr, ptr %5, align 8, !tbaa !36
  call void @_ZN8LightGBM6Common18AlignmentAllocatorIdLm32EE7destroyEPd(ptr noundef nonnull align 1 dereferenceable(1) %7, ptr noundef %8)
  ret void
}

; Function Attrs: mustprogress uwtable
define linkonce_odr void @_ZNSt16allocator_traitsIN8LightGBM6Common18AlignmentAllocatorIdLm32EEEE7destroyIdEEvRS3_PT_(ptr noundef nonnull align 1 dereferenceable(1) %0, ptr noundef %1) #11 comdat align 2 {
  %3 = alloca ptr, align 8
  %4 = alloca ptr, align 8
  store ptr %0, ptr %3, align 8, !tbaa !205
  store ptr %1, ptr %4, align 8, !tbaa !36
  %5 = load ptr, ptr %3, align 8, !tbaa !205
  %6 = load ptr, ptr %4, align 8, !tbaa !36
  call void @_ZNSt16allocator_traitsIN8LightGBM6Common18AlignmentAllocatorIdLm32EEEE10_S_destroyIS3_dEEDTcldtfp_7destroyfp0_EERT_PT0_i(ptr noundef nonnull align 1 dereferenceable(1) %5, ptr noundef %6, i32 noundef 0)
  ret void
}

; Function Attrs: noinline noreturn nounwind uwtable
define linkonce_odr hidden void @__clang_call_terminate(ptr noundef %0) #8 comdat {
  %2 = call ptr @__cxa_begin_catch(ptr %0) #3
  call void @_ZSt9terminatev() #21
  unreachable
}

; Function Attrs: mustprogress uwtable
define linkonce_odr void @_ZSt8_DestroyIPdN8LightGBM6Common18AlignmentAllocatorIdLm32EEEEvT_S5_RT0_(ptr noundef %0, ptr noundef %1, ptr noundef nonnull align 1 dereferenceable(1) %2) #11 comdat {
  %4 = alloca ptr, align 8
  %5 = alloca ptr, align 8
  %6 = alloca ptr, align 8
  store ptr %0, ptr %4, align 8, !tbaa !36
  store ptr %1, ptr %5, align 8, !tbaa !36
  store ptr %2, ptr %6, align 8, !tbaa !205
  br label %7

7:                                                ; preds = %14, %3
  %8 = load ptr, ptr %4, align 8, !tbaa !36
  %9 = load ptr, ptr %5, align 8, !tbaa !36
  %10 = icmp ne ptr %8, %9
  br i1 %10, label %11, label %17

11:                                               ; preds = %7
  %12 = load ptr, ptr %6, align 8, !tbaa !205
  %13 = load ptr, ptr %4, align 8, !tbaa !36
  call void @_ZNSt16allocator_traitsIN8LightGBM6Common18AlignmentAllocatorIdLm32EEEE7destroyIdEEvRS3_PT_(ptr noundef nonnull align 1 dereferenceable(1) %12, ptr noundef %13)
  br label %14

14:                                               ; preds = %11
  %15 = load ptr, ptr %4, align 8, !tbaa !36
  %16 = getelementptr inbounds nuw double, ptr %15, i32 1
  store ptr %16, ptr %4, align 8, !tbaa !36
  br label %7, !llvm.loop !210

17:                                               ; preds = %7
  ret void
}

; Function Attrs: mustprogress nounwind uwtable
define linkonce_odr noundef nonnull align 1 dereferenceable(1) ptr @_ZNSt12_Vector_baseIdN8LightGBM6Common18AlignmentAllocatorIdLm32EEEE19_M_get_Tp_allocatorEv(ptr noundef nonnull align 8 dereferenceable(24) %0) #4 comdat align 2 {
  %2 = alloca ptr, align 8
  store ptr %0, ptr %2, align 8, !tbaa !208
  %3 = load ptr, ptr %2, align 8
  %4 = getelementptr inbounds nuw %"struct.std::_Vector_base.8", ptr %3, i32 0, i32 0
  ret ptr %4
}

; Function Attrs: mustprogress nounwind uwtable
define linkonce_odr void @_ZNSt6vectorIdN8LightGBM6Common18AlignmentAllocatorIdLm32EEEE15_M_erase_at_endEPd(ptr noundef nonnull align 8 dereferenceable(24) %0, ptr noundef %1) #4 comdat align 2 personality ptr @__gxx_personality_v0 {
  %3 = alloca ptr, align 8
  %4 = alloca ptr, align 8
  %5 = alloca i64, align 8
  store ptr %0, ptr %3, align 8, !tbaa !9
  store ptr %1, ptr %4, align 8, !tbaa !36
  %6 = load ptr, ptr %3, align 8
  call void @llvm.lifetime.start.p0(i64 8, ptr %5) #3
  %7 = getelementptr inbounds nuw %"struct.std::_Vector_base.8", ptr %6, i32 0, i32 0
  %8 = getelementptr inbounds nuw %"struct.std::_Vector_base<double, LightGBM::Common::AlignmentAllocator<double>>::_Vector_impl_data", ptr %7, i32 0, i32 1
  %9 = load ptr, ptr %8, align 8, !tbaa !40
  %10 = load ptr, ptr %4, align 8, !tbaa !36
  %11 = ptrtoint ptr %9 to i64
  %12 = ptrtoint ptr %10 to i64
  %13 = sub i64 %11, %12
  %14 = sdiv exact i64 %13, 8
  store i64 %14, ptr %5, align 8, !tbaa !51
  %15 = load i64, ptr %5, align 8, !tbaa !51
  %16 = icmp ne i64 %15, 0
  br i1 %16, label %17, label %27

17:                                               ; preds = %2
  %18 = load ptr, ptr %4, align 8, !tbaa !36
  %19 = getelementptr inbounds nuw %"struct.std::_Vector_base.8", ptr %6, i32 0, i32 0
  %20 = getelementptr inbounds nuw %"struct.std::_Vector_base<double, LightGBM::Common::AlignmentAllocator<double>>::_Vector_impl_data", ptr %19, i32 0, i32 1
  %21 = load ptr, ptr %20, align 8, !tbaa !40
  %22 = call noundef nonnull align 1 dereferenceable(1) ptr @_ZNSt12_Vector_baseIdN8LightGBM6Common18AlignmentAllocatorIdLm32EEEE19_M_get_Tp_allocatorEv(ptr noundef nonnull align 8 dereferenceable(24) %6) #3
  invoke void @_ZSt8_DestroyIPdN8LightGBM6Common18AlignmentAllocatorIdLm32EEEEvT_S5_RT0_(ptr noundef %18, ptr noundef %21, ptr noundef nonnull align 1 dereferenceable(1) %22)
          to label %23 unwind label %28

23:                                               ; preds = %17
  %24 = load ptr, ptr %4, align 8, !tbaa !36
  %25 = getelementptr inbounds nuw %"struct.std::_Vector_base.8", ptr %6, i32 0, i32 0
  %26 = getelementptr inbounds nuw %"struct.std::_Vector_base<double, LightGBM::Common::AlignmentAllocator<double>>::_Vector_impl_data", ptr %25, i32 0, i32 1
  store ptr %24, ptr %26, align 8, !tbaa !40
  br label %27

27:                                               ; preds = %23, %2
  call void @llvm.lifetime.end.p0(i64 8, ptr %5) #3
  ret void

28:                                               ; preds = %17
  %29 = landingpad { ptr, i32 }
          catch ptr null
  %30 = extractvalue { ptr, i32 } %29, 0
  call void @__clang_call_terminate(ptr %30) #21
  unreachable
}

; Function Attrs: mustprogress uwtable
define linkonce_odr void @_ZNSt6vectorIdN8LightGBM6Common18AlignmentAllocatorIdLm32EEEE6resizeEm(ptr noundef nonnull align 8 dereferenceable(24) %0, i64 noundef %1) #11 comdat align 2 {
  %3 = alloca ptr, align 8
  %4 = alloca i64, align 8
  store ptr %0, ptr %3, align 8, !tbaa !9
  store i64 %1, ptr %4, align 8, !tbaa !51
  %5 = load ptr, ptr %3, align 8
  %6 = load i64, ptr %4, align 8, !tbaa !51
  %7 = call noundef i64 @_ZNKSt6vectorIdN8LightGBM6Common18AlignmentAllocatorIdLm32EEEE4sizeEv(ptr noundef nonnull align 8 dereferenceable(24) %5) #3
  %8 = icmp ugt i64 %6, %7
  br i1 %8, label %9, label %13

9:                                                ; preds = %2
  %10 = load i64, ptr %4, align 8, !tbaa !51
  %11 = call noundef i64 @_ZNKSt6vectorIdN8LightGBM6Common18AlignmentAllocatorIdLm32EEEE4sizeEv(ptr noundef nonnull align 8 dereferenceable(24) %5) #3
  %12 = sub i64 %10, %11
  call void @_ZNSt6vectorIdN8LightGBM6Common18AlignmentAllocatorIdLm32EEEE17_M_default_appendEm(ptr noundef nonnull align 8 dereferenceable(24) %5, i64 noundef %12)
  br label %24

13:                                               ; preds = %2
  %14 = load i64, ptr %4, align 8, !tbaa !51
  %15 = call noundef i64 @_ZNKSt6vectorIdN8LightGBM6Common18AlignmentAllocatorIdLm32EEEE4sizeEv(ptr noundef nonnull align 8 dereferenceable(24) %5) #3
  %16 = icmp ult i64 %14, %15
  br i1 %16, label %17, label %23

17:                                               ; preds = %13
  %18 = getelementptr inbounds nuw %"struct.std::_Vector_base.8", ptr %5, i32 0, i32 0
  %19 = getelementptr inbounds nuw %"struct.std::_Vector_base<double, LightGBM::Common::AlignmentAllocator<double>>::_Vector_impl_data", ptr %18, i32 0, i32 0
  %20 = load ptr, ptr %19, align 8, !tbaa !38
  %21 = load i64, ptr %4, align 8, !tbaa !51
  %22 = getelementptr inbounds nuw double, ptr %20, i64 %21
  call void @_ZNSt6vectorIdN8LightGBM6Common18AlignmentAllocatorIdLm32EEEE15_M_erase_at_endEPd(ptr noundef nonnull align 8 dereferenceable(24) %5, ptr noundef %22) #3
  br label %23

23:                                               ; preds = %17, %13
  br label %24

24:                                               ; preds = %23, %9
  ret void
}

; Function Attrs: mustprogress nounwind uwtable
define linkonce_odr noundef i64 @_ZNKSt6vectorIdN8LightGBM6Common18AlignmentAllocatorIdLm32EEEE4sizeEv(ptr noundef nonnull align 8 dereferenceable(24) %0) #4 comdat align 2 {
  %2 = alloca ptr, align 8
  store ptr %0, ptr %2, align 8, !tbaa !9
  %3 = load ptr, ptr %2, align 8
  %4 = getelementptr inbounds nuw %"struct.std::_Vector_base.8", ptr %3, i32 0, i32 0
  %5 = getelementptr inbounds nuw %"struct.std::_Vector_base<double, LightGBM::Common::AlignmentAllocator<double>>::_Vector_impl_data", ptr %4, i32 0, i32 1
  %6 = load ptr, ptr %5, align 8, !tbaa !40
  %7 = getelementptr inbounds nuw %"struct.std::_Vector_base.8", ptr %3, i32 0, i32 0
  %8 = getelementptr inbounds nuw %"struct.std::_Vector_base<double, LightGBM::Common::AlignmentAllocator<double>>::_Vector_impl_data", ptr %7, i32 0, i32 0
  %9 = load ptr, ptr %8, align 8, !tbaa !38
  %10 = ptrtoint ptr %6 to i64
  %11 = ptrtoint ptr %9 to i64
  %12 = sub i64 %10, %11
  %13 = sdiv exact i64 %12, 8
  ret i64 %13
}

; Function Attrs: mustprogress uwtable
define void @_ZN8LightGBM18MultiValBinWrapper13ResizeHistBufEPSt6vectorIdNS_6Common18AlignmentAllocatorIdLm32EEEEPNS_11MultiValBinEPd(ptr noundef nonnull align 8 dereferenceable(192) %0, ptr noundef %1, ptr noundef %2, ptr noundef %3) #11 align 2 {
  %5 = alloca ptr, align 8
  %6 = alloca ptr, align 8
  %7 = alloca ptr, align 8
  %8 = alloca ptr, align 8
  %9 = alloca i64, align 8
  store ptr %0, ptr %5, align 8, !tbaa !4
  store ptr %1, ptr %6, align 8, !tbaa !9
  store ptr %2, ptr %7, align 8, !tbaa !108
  store ptr %3, ptr %8, align 8, !tbaa !36
  %10 = load ptr, ptr %5, align 8
  %11 = load ptr, ptr %7, align 8, !tbaa !108
  %12 = load ptr, ptr %11, align 8, !tbaa !117
  %13 = getelementptr inbounds ptr, ptr %12, i64 3
  %14 = load ptr, ptr %13, align 8
  %15 = call noundef i32 %14(ptr noundef nonnull align 8 dereferenceable(8) %11)
  %16 = getelementptr inbounds nuw %"class.LightGBM::MultiValBinWrapper", ptr %10, i32 0, i32 10
  store i32 %15, ptr %16, align 4, !tbaa !56
  %17 = getelementptr inbounds nuw %"class.LightGBM::MultiValBinWrapper", ptr %10, i32 0, i32 10
  %18 = load i32, ptr %17, align 4, !tbaa !56
  %19 = add nsw i32 %18, 32
  %20 = sub nsw i32 %19, 1
  %21 = sdiv i32 %20, 32
  %22 = mul nsw i32 %21, 32
  %23 = getelementptr inbounds nuw %"class.LightGBM::MultiValBinWrapper", ptr %10, i32 0, i32 11
  store i32 %22, ptr %23, align 8, !tbaa !35
  %24 = load ptr, ptr %8, align 8, !tbaa !36
  %25 = getelementptr inbounds nuw %"class.LightGBM::MultiValBinWrapper", ptr %10, i32 0, i32 17
  store ptr %24, ptr %25, align 8, !tbaa !46
  call void @llvm.lifetime.start.p0(i64 8, ptr %9) #3
  %26 = getelementptr inbounds nuw %"class.LightGBM::MultiValBinWrapper", ptr %10, i32 0, i32 12
  %27 = load i32, ptr %26, align 4, !tbaa !87
  %28 = sext i32 %27 to i64
  %29 = getelementptr inbounds nuw %"class.LightGBM::MultiValBinWrapper", ptr %10, i32 0, i32 11
  %30 = load i32, ptr %29, align 8, !tbaa !35
  %31 = sext i32 %30 to i64
  %32 = mul i64 %28, %31
  %33 = mul i64 %32, 2
  store i64 %33, ptr %9, align 8, !tbaa !51
  %34 = load ptr, ptr %6, align 8, !tbaa !9
  %35 = call noundef i64 @_ZNKSt6vectorIdN8LightGBM6Common18AlignmentAllocatorIdLm32EEEE4sizeEv(ptr noundef nonnull align 8 dereferenceable(24) %34) #3
  %36 = load i64, ptr %9, align 8, !tbaa !51
  %37 = icmp ult i64 %35, %36
  br i1 %37, label %38, label %41

38:                                               ; preds = %4
  %39 = load ptr, ptr %6, align 8, !tbaa !9
  %40 = load i64, ptr %9, align 8, !tbaa !51
  call void @_ZNSt6vectorIdN8LightGBM6Common18AlignmentAllocatorIdLm32EEEE6resizeEm(ptr noundef nonnull align 8 dereferenceable(24) %39, i64 noundef %40)
  br label %41

41:                                               ; preds = %38, %4
  call void @llvm.lifetime.end.p0(i64 8, ptr %9) #3
  ret void
}