; Function Attrs: mustprogress uwtable
define void @_ZN8LightGBM18MultiValBinWrapper13ResizeHistBufEPSt6vectorIdNS_6Common18AlignmentAllocatorIdLm32EEEEPNS_11MultiValBinEPd(ptr noundef nonnull align 8 captures(none) dereferenceable(192) initializes((124, 132), (152, 160)) %0, ptr noundef %1, ptr noundef %2, ptr noundef %3) local_unnamed_addr #8 align 2 personality ptr @__gxx_personality_v0 {
  %5 = load ptr, ptr %2, align 8, !tbaa !92
  %6 = getelementptr inbounds nuw i8, ptr %5, i64 24
  %7 = load ptr, ptr %6, align 8
  %8 = tail call noundef i32 %7(ptr noundef nonnull align 8 dereferenceable(8) %2)
  %9 = getelementptr inbounds nuw i8, ptr %0, i64 124
  store i32 %8, ptr %9, align 4, !tbaa !44
  %10 = add nsw i32 %8, 31
  %11 = sdiv i32 %10, 32
  %12 = shl nsw i32 %11, 5
  %13 = getelementptr inbounds nuw i8, ptr %0, i64 128
  store i32 %12, ptr %13, align 8, !tbaa !34
  %14 = getelementptr inbounds nuw i8, ptr %0, i64 152
  store ptr %3, ptr %14, align 8, !tbaa !40
  %15 = getelementptr inbounds nuw i8, ptr %0, i64 132
  %16 = load i32, ptr %15, align 4, !tbaa !59
  %17 = sext i32 %16 to i64
  %18 = sext i32 %12 to i64
  %19 = shl nsw i64 %18, 1
  %20 = mul nsw i64 %19, %17
  %21 = getelementptr inbounds nuw i8, ptr %1, i64 8
  %22 = load ptr, ptr %21, align 8, !tbaa !33
  %23 = load ptr, ptr %1, align 8, !tbaa !31
  %24 = ptrtoint ptr %22 to i64
  %25 = ptrtoint ptr %23 to i64
  %26 = sub i64 %24, %25
  %27 = ashr exact i64 %26, 3
  %28 = icmp ult i64 %27, %20
  br i1 %28, label %_ZNSt6vectorIdN8LightGBM6Common18AlignmentAllocatorIdLm32EEEE6resizeEm.exit, label %30

_ZNSt6vectorIdN8LightGBM6Common18AlignmentAllocatorIdLm32EEEE6resizeEm.exit: ; preds = %4
  %29 = sub nuw i64 %20, %27
  tail call void @_ZNSt6vectorIdN8LightGBM6Common18AlignmentAllocatorIdLm32EEEE17_M_default_appendEm(ptr noundef nonnull align 8 dereferenceable(24) %1, i64 noundef %29)
  br label %30

30:                                               ; preds = %_ZNSt6vectorIdN8LightGBM6Common18AlignmentAllocatorIdLm32EEEE6resizeEm.exit, %4
  ret void
}